; Function Attrs: mustprogress uwtable
define hidden noundef zeroext i1 @_ZN3sls7bv_eval19try_repair_zero_extERKNS_5bvectERNS_12bv_valuationE(ptr noundef nonnull align 8 dereferenceable(865) %0, ptr noundef nonnull readonly align 8 captures(none) dereferenceable(20) %1, ptr noundef nonnull align 8 dereferenceable(184) %2) local_unnamed_addr #3 align 2 {
  %4 = getelementptr inbounds nuw i8, ptr %2, i64 152
  %5 = load i32, ptr %4, align 8, !tbaa !128
  %6 = getelementptr inbounds nuw i8, ptr %1, i64 8
  %7 = load i32, ptr %6, align 8, !tbaa !236
  %8 = icmp ult i32 %5, %7
  br i1 %8, label %.lr.ph, label %.preheader

.lr.ph:                                           ; preds = %3
  %9 = load ptr, ptr %1, align 8, !tbaa !97
  br label %17

10:                                               ; preds = %17
  %11 = add i32 %.01722, 1
  %exitcond.not = icmp eq i32 %11, %7
  br i1 %exitcond.not, label %.preheader, label %17, !llvm.loop !277

.preheader:                                       ; preds = %10, %3
  %12 = getelementptr inbounds nuw i8, ptr %1, i64 12
  %13 = load i32, ptr %12, align 4, !tbaa !234
  %.not25 = icmp eq i32 %13, 0
  br i1 %.not25, label %.preheader.._crit_edge_crit_edge, label %.lr.ph24

.preheader.._crit_edge_crit_edge:                 ; preds = %.preheader
  %.phi.trans.insert = getelementptr inbounds nuw i8, ptr %0, i64 552
  %.pre = load ptr, ptr %.phi.trans.insert, align 8, !tbaa !97
  br label %._crit_edge

.lr.ph24:                                         ; preds = %.preheader
  %14 = load ptr, ptr %1, align 8, !tbaa !97
  %15 = getelementptr inbounds nuw i8, ptr %0, i64 552
  %16 = load ptr, ptr %15, align 8, !tbaa !97
  br label %56

17:                                               ; preds = %.lr.ph, %10
  %.01722 = phi i32 [ %5, %.lr.ph ], [ %11, %10 ]
  %18 = lshr i32 %.01722, 5
  %19 = zext nneg i32 %18 to i64
  %20 = getelementptr inbounds nuw i32, ptr %9, i64 %19
  %21 = load i32, ptr %20, align 4, !tbaa !102
  %22 = and i32 %.01722, 31
  %23 = shl nuw i32 1, %22
  %24 = and i32 %21, %23
  %.not = icmp eq i32 %24, 0
  br i1 %.not, label %10, label %_ZN3sls12bv_valuation7try_setERKNS_5bvectE.exit

._crit_edge:                                      ; preds = %56, %.preheader.._crit_edge_crit_edge
  %25 = phi ptr [ %.pre, %.preheader.._crit_edge_crit_edge ], [ %16, %56 ]
  %26 = getelementptr inbounds nuw i8, ptr %0, i64 552
  %27 = getelementptr inbounds nuw i8, ptr %2, i64 148
  %28 = load i32, ptr %27, align 4, !tbaa !157
  %29 = getelementptr inbounds nuw i8, ptr %2, i64 156
  %30 = load i32, ptr %29, align 4, !tbaa !131
  %31 = add i32 %30, -1
  %32 = zext i32 %31 to i64
  %33 = getelementptr inbounds nuw i32, ptr %25, i64 %32
  %34 = load i32, ptr %33, align 4, !tbaa !102
  %35 = and i32 %34, %28
  store i32 %35, ptr %33, align 4, !tbaa !102
  %36 = tail call noundef zeroext i1 @_ZNK3sls12bv_valuation7can_setERKNS_5bvectE(ptr noundef nonnull align 8 dereferenceable(184) %2, ptr noundef nonnull align 8 dereferenceable(20) %26)
  br i1 %36, label %37, label %_ZN3sls12bv_valuation7try_setERKNS_5bvectE.exit

37:                                               ; preds = %._crit_edge
  %38 = load i32, ptr %29, align 4, !tbaa !131
  %.not4.i.i = icmp eq i32 %38, 0
  br i1 %.not4.i.i, label %.._crit_edge_crit_edge.i.i, label %.lr.ph.i.i

.._crit_edge_crit_edge.i.i:                       ; preds = %37
  %.phi.trans.insert.i.i = getelementptr inbounds nuw i8, ptr %2, i64 160
  %.pre7.i.i = load ptr, ptr %.phi.trans.insert.i.i, align 8, !tbaa !97
  br label %_ZN3sls12bv_valuation3setERKNS_5bvectE.exit.i

.lr.ph.i.i:                                       ; preds = %37
  %39 = load ptr, ptr %26, align 8, !tbaa !97
  %40 = getelementptr inbounds nuw i8, ptr %2, i64 160
  %41 = load ptr, ptr %40, align 8, !tbaa !97
  %42 = zext i32 %38 to i64
  br label %45

._crit_edge.loopexit.i.i:                         ; preds = %45
  %.pre.i.i = load i32, ptr %29, align 4, !tbaa !131
  %43 = add i32 %.pre.i.i, -1
  %44 = zext i32 %43 to i64
  br label %_ZN3sls12bv_valuation3setERKNS_5bvectE.exit.i

45:                                               ; preds = %45, %.lr.ph.i.i
  %indvars.iv.i.i = phi i64 [ %42, %.lr.ph.i.i ], [ %46, %45 ]
  %46 = add nsw i64 %indvars.iv.i.i, -1
  %47 = getelementptr inbounds nuw i32, ptr %39, i64 %46
  %48 = load i32, ptr %47, align 4, !tbaa !102
  %49 = getelementptr inbounds nuw i32, ptr %41, i64 %46
  store i32 %48, ptr %49, align 4, !tbaa !102
  %.not.wide.i.i = icmp eq i64 %46, 0
  br i1 %.not.wide.i.i, label %._crit_edge.loopexit.i.i, label %45, !llvm.loop !175

_ZN3sls12bv_valuation3setERKNS_5bvectE.exit.i:    ; preds = %._crit_edge.loopexit.i.i, %.._crit_edge_crit_edge.i.i
  %50 = phi ptr [ %41, %._crit_edge.loopexit.i.i ], [ %.pre7.i.i, %.._crit_edge_crit_edge.i.i ]
  %51 = phi i64 [ %44, %._crit_edge.loopexit.i.i ], [ 4294967295, %.._crit_edge_crit_edge.i.i ]
  %52 = load i32, ptr %27, align 4, !tbaa !157
  %53 = getelementptr inbounds nuw i32, ptr %50, i64 %51
  %54 = load i32, ptr %53, align 4, !tbaa !102
  %55 = and i32 %54, %52
  store i32 %55, ptr %53, align 4, !tbaa !102
  br label %_ZN3sls12bv_valuation7try_setERKNS_5bvectE.exit

56:                                               ; preds = %.lr.ph24, %56
  %indvars.iv = phi i64 [ 0, %.lr.ph24 ], [ %indvars.iv.next, %56 ]
  %57 = getelementptr inbounds nuw i32, ptr %14, i64 %indvars.iv
  %58 = load i32, ptr %57, align 4, !tbaa !102
  %59 = getelementptr inbounds nuw i32, ptr %16, i64 %indvars.iv
  store i32 %58, ptr %59, align 4, !tbaa !102
  %indvars.iv.next = add nuw nsw i64 %indvars.iv, 1
  %60 = load i32, ptr %12, align 4, !tbaa !234
  %61 = zext i32 %60 to i64
  %62 = icmp samesign ult i64 %indvars.iv.next, %61
  br i1 %62, label %56, label %._crit_edge, !llvm.loop !278

_ZN3sls12bv_valuation7try_setERKNS_5bvectE.exit:  ; preds = %17, %_ZN3sls12bv_valuation3setERKNS_5bvectE.exit.i, %._crit_edge
  %.1 = phi i1 [ false, %._crit_edge ], [ true, %_ZN3sls12bv_valuation3setERKNS_5bvectE.exit.i ], [ false, %17 ]
  ret i1 %.1
}